target datalayout = "e-m:e-p270:32:32-p271:32:32-p272:64:64-i64:64-i128:128-f80:128-n8:16:32:64-S128"
target triple = "x86_64-pc-linux-gnu"

@.str.8 = private unnamed_addr constant [7 x i8] c"thread\00", align 1

; Function Attrs: nounwind uwtable
define internal ptr @getco(ptr noundef %0) #0 {
  %2 = alloca ptr, align 8
  %3 = alloca ptr, align 8
  store ptr %0, ptr %2, align 8, !tbaa !4
  call void @llvm.lifetime.start.p0(i64 8, ptr %3) #4
  %4 = load ptr, ptr %2, align 8, !tbaa !4
  %5 = call ptr @lua_tothread(ptr noundef %4, i32 noundef 1)
  store ptr %5, ptr %3, align 8, !tbaa !4
  %6 = load ptr, ptr %3, align 8, !tbaa !4
  %7 = icmp ne ptr %6, null
  %8 = zext i1 %7 to i32
  %9 = sext i32 %8 to i64
  %10 = call i64 @llvm.expect.i64(i64 %9, i64 1)
  %11 = icmp ne i64 %10, 0
  br i1 %11, label %15, label %12

12:                                               ; preds = %1
  %13 = load ptr, ptr %2, align 8, !tbaa !4
  %14 = call i32 @luaL_typeerror(ptr noundef %13, i32 noundef 1, ptr noundef @.str.8)
  br label %15

15:                                               ; preds = %12, %1
  %16 = load ptr, ptr %3, align 8, !tbaa !4
  call void @llvm.lifetime.end.p0(i64 8, ptr %3) #4
  ret ptr %16
}

; Function Attrs: nounwind uwtable
define internal i32 @luaB_coresume(ptr noundef %0) #0 {
  %2 = alloca i32, align 4
  %3 = alloca ptr, align 8
  %4 = alloca ptr, align 8
  %5 = alloca i32, align 4
  %6 = alloca i32, align 4
  store ptr %0, ptr %3, align 8, !tbaa !4
  call void @llvm.lifetime.start.p0(i64 8, ptr %4) #4
  %7 = load ptr, ptr %3, align 8, !tbaa !4
  %8 = call ptr @getco(ptr noundef %7)
  store ptr %8, ptr %4, align 8, !tbaa !4
  call void @llvm.lifetime.start.p0(i64 4, ptr %5) #4
  %9 = load ptr, ptr %3, align 8, !tbaa !4
  %10 = load ptr, ptr %4, align 8, !tbaa !4
  %11 = load ptr, ptr %3, align 8, !tbaa !4
  %12 = call i32 @lua_gettop(ptr noundef %11)
  %13 = sub nsw i32 %12, 1
  %14 = call i32 @auxresume(ptr noundef %9, ptr noundef %10, i32 noundef %13)
  store i32 %14, ptr %5, align 4, !tbaa !9
  %15 = load i32, ptr %5, align 4, !tbaa !9
  %16 = icmp slt i32 %15, 0
  %17 = zext i1 %16 to i32
  %18 = icmp ne i32 %17, 0
  %19 = zext i1 %18 to i32
  %20 = sext i32 %19 to i64
  %21 = call i64 @llvm.expect.i64(i64 %20, i64 0)
  %22 = icmp ne i64 %21, 0
  br i1 %22, label %23, label %26

23:                                               ; preds = %1
  %24 = load ptr, ptr %3, align 8, !tbaa !4
  call void @lua_pushboolean(ptr noundef %24, i32 noundef 0)
  %25 = load ptr, ptr %3, align 8, !tbaa !4
  call void @lua_rotate(ptr noundef %25, i32 noundef -2, i32 noundef 1)
  store i32 2, ptr %2, align 4
  store i32 1, ptr %6, align 4
  br label %34

26:                                               ; preds = %1
  %27 = load ptr, ptr %3, align 8, !tbaa !4
  call void @lua_pushboolean(ptr noundef %27, i32 noundef 1)
  %28 = load ptr, ptr %3, align 8, !tbaa !4
  %29 = load i32, ptr %5, align 4, !tbaa !9
  %30 = add nsw i32 %29, 1
  %31 = sub nsw i32 0, %30
  call void @lua_rotate(ptr noundef %28, i32 noundef %31, i32 noundef 1)
  %32 = load i32, ptr %5, align 4, !tbaa !9
  %33 = add nsw i32 %32, 1
  store i32 %33, ptr %2, align 4
  store i32 1, ptr %6, align 4
  br label %34

34:                                               ; preds = %26, %23
  call void @llvm.lifetime.end.p0(i64 4, ptr %5) #4
  call void @llvm.lifetime.end.p0(i64 8, ptr %4) #4
  %35 = load i32, ptr %2, align 4
  ret i32 %35
}