; Function Attrs: nounwind uwtable
define internal range(i32 1, -2147483648) i32 @luaB_coresume(ptr noundef %0) #0 {
  %2 = tail call ptr @lua_tothread(ptr noundef %0, i32 noundef 1) #3
  %.not.i = icmp eq ptr %2, null
  br i1 %.not.i, label %3, label %getco.exit, !prof !4

3:                                                ; preds = %1
  %4 = tail call i32 @luaL_typeerror(ptr noundef %0, i32 noundef 1, ptr noundef nonnull @.str.8) #3
  br label %getco.exit

getco.exit:                                       ; preds = %1, %3
  %5 = tail call i32 @lua_gettop(ptr noundef %0) #3
  %6 = add nsw i32 %5, -1
  %7 = tail call fastcc i32 @auxresume(ptr noundef %0, ptr noundef %2, i32 noundef %6)
  %8 = icmp slt i32 %7, 0
  br i1 %8, label %9, label %10, !prof !4

9:                                                ; preds = %getco.exit
  tail call void @lua_pushboolean(ptr noundef %0, i32 noundef 0) #3
  br label %13

10:                                               ; preds = %getco.exit
  tail call void @lua_pushboolean(ptr noundef %0, i32 noundef 1) #3
  %11 = add nuw nsw i32 %7, 1
  %12 = xor i32 %7, -1
  br label %13

13:                                               ; preds = %10, %9
  %.sink = phi i32 [ %12, %10 ], [ -2, %9 ]
  %.0 = phi i32 [ %11, %10 ], [ 2, %9 ]
  tail call void @lua_rotate(ptr noundef %0, i32 noundef %.sink, i32 noundef 1) #3
  ret i32 %.0
}